; Function Attrs: mustprogress uwtable
define void @_ZN5Ipopt14CompoundMatrix15SetCompNonConstEiiRNS_6MatrixE(ptr noundef nonnull align 8 dereferenceable(129) %0, i32 noundef %1, i32 noundef %2, ptr noundef nonnull align 8 dereferenceable(69) %3) local_unnamed_addr #0 align 2 {
  %5 = getelementptr inbounds i8, ptr %0, i64 96
  %6 = sext i32 %1 to i64
  %7 = load ptr, ptr %5, align 8
  %8 = getelementptr inbounds %"class.std::vector.30", ptr %7, i64 %6
  %9 = sext i32 %2 to i64
  %10 = load ptr, ptr %8, align 8
  %11 = getelementptr inbounds %"class.Ipopt::SmartPtr.36", ptr %10, i64 %9
  %12 = load ptr, ptr %11, align 8
  %.not.i.i.i = icmp eq ptr %12, null
  br i1 %.not.i.i.i, label %_ZN5Ipopt8SmartPtrIKNS_6MatrixEEaSEPS2_.exit, label %13

13:                                               ; preds = %4
  %14 = getelementptr inbounds i8, ptr %12, i64 8
  %15 = load i32, ptr %14, align 8
  %16 = add nsw i32 %15, -1
  store i32 %16, ptr %14, align 8
  %17 = load ptr, ptr %11, align 8
  %18 = getelementptr inbounds i8, ptr %17, i64 8
  %19 = load i32, ptr %18, align 8
  %20 = icmp eq i32 %19, 0
  br i1 %20, label %21, label %_ZN5Ipopt8SmartPtrIKNS_6MatrixEEaSEPS2_.exit

21:                                               ; preds = %13
  %22 = load ptr, ptr %17, align 8
  %23 = getelementptr inbounds i8, ptr %22, i64 8
  %24 = load ptr, ptr %23, align 8
  tail call void %24(ptr noundef nonnull align 8 dereferenceable(69) %17) #17
  br label %_ZN5Ipopt8SmartPtrIKNS_6MatrixEEaSEPS2_.exit

_ZN5Ipopt8SmartPtrIKNS_6MatrixEEaSEPS2_.exit:     ; preds = %4, %13, %21
  store ptr null, ptr %11, align 8
  %25 = getelementptr inbounds i8, ptr %0, i64 72
  %26 = load ptr, ptr %25, align 8
  %27 = getelementptr inbounds %"class.std::vector.25", ptr %26, i64 %6
  %28 = load ptr, ptr %27, align 8
  %29 = getelementptr inbounds %"class.Ipopt::SmartPtr.35", ptr %28, i64 %9
  %30 = getelementptr inbounds i8, ptr %3, i64 8
  %31 = load i32, ptr %30, align 8
  %32 = add nsw i32 %31, 1
  store i32 %32, ptr %30, align 8
  %33 = load ptr, ptr %29, align 8
  %.not.i.i.i5 = icmp eq ptr %33, null
  br i1 %.not.i.i.i5, label %_ZN5Ipopt8SmartPtrINS_6MatrixEEaSEPS1_.exit, label %34

34:                                               ; preds = %_ZN5Ipopt8SmartPtrIKNS_6MatrixEEaSEPS2_.exit
  %35 = getelementptr inbounds i8, ptr %33, i64 8
  %36 = load i32, ptr %35, align 8
  %37 = add nsw i32 %36, -1
  store i32 %37, ptr %35, align 8
  %38 = load ptr, ptr %29, align 8
  %39 = getelementptr inbounds i8, ptr %38, i64 8
  %40 = load i32, ptr %39, align 8
  %41 = icmp eq i32 %40, 0
  br i1 %41, label %42, label %_ZN5Ipopt8SmartPtrINS_6MatrixEEaSEPS1_.exit

42:                                               ; preds = %34
  %43 = load ptr, ptr %38, align 8
  %44 = getelementptr inbounds i8, ptr %43, i64 8
  %45 = load ptr, ptr %44, align 8
  tail call void %45(ptr noundef nonnull align 8 dereferenceable(69) %38) #17
  br label %_ZN5Ipopt8SmartPtrINS_6MatrixEEaSEPS1_.exit

_ZN5Ipopt8SmartPtrINS_6MatrixEEaSEPS1_.exit:      ; preds = %_ZN5Ipopt8SmartPtrIKNS_6MatrixEEaSEPS2_.exit, %34, %42
  store ptr %3, ptr %29, align 8
  tail call void @_ZN5Ipopt12TaggedObject13ObjectChangedEv(ptr noundef nonnull align 8 dereferenceable(56) %0)
  ret void
}